; Function Attrs: nounwind uwtable
define ptr @l_Lean_PersistentArray_forIn___at_Lean_Meta_getFVarSetToGeneralize___spec__66___boxed(ptr noundef %0, ptr noundef %1, ptr noundef %2, ptr noundef %3, ptr noundef %4, ptr noundef %5, ptr noundef %6, ptr noundef %7, ptr noundef %8, ptr noundef %9) local_unnamed_addr #0 {
  %11 = ptrtoint ptr %1 to i64
  %12 = lshr i64 %11, 1
  %13 = trunc i64 %12 to i8
  %14 = and i64 %11, 1
  %.not = icmp eq i64 %14, 0
  br i1 %.not, label %15, label %lean_dec.exit23

15:                                               ; preds = %10
  %16 = load i32, ptr %1, align 4, !tbaa !8
  %17 = icmp sgt i32 %16, 1
  br i1 %17, label %18, label %20, !prof !11

18:                                               ; preds = %15
  %19 = add nsw i32 %16, -1
  store i32 %19, ptr %1, align 4, !tbaa !8
  br label %lean_dec.exit23

20:                                               ; preds = %15
  %.not.i = icmp eq i32 %16, 0
  br i1 %.not.i, label %lean_dec.exit23, label %21

21:                                               ; preds = %20
  tail call void @lean_dec_ref_cold(ptr noundef nonnull %1) #4
  br label %lean_dec.exit23

lean_dec.exit23:                                  ; preds = %21, %20, %18, %10
  %22 = tail call ptr @l_Lean_PersistentArray_forIn___at_Lean_Meta_getFVarSetToGeneralize___spec__66(ptr noundef %0, i8 noundef zeroext %13, ptr noundef %2, ptr noundef %3, ptr noundef %4, ptr noundef %5, ptr noundef %6, ptr noundef %7, ptr noundef %8, ptr noundef %9)
  %23 = ptrtoint ptr %8 to i64
  %24 = and i64 %23, 1
  %.not36 = icmp eq i64 %24, 0
  br i1 %.not36, label %25, label %lean_dec.exit22

25:                                               ; preds = %lean_dec.exit23
  %26 = load i32, ptr %8, align 4, !tbaa !8
  %27 = icmp sgt i32 %26, 1
  br i1 %27, label %28, label %30, !prof !11

28:                                               ; preds = %25
  %29 = add nsw i32 %26, -1
  store i32 %29, ptr %8, align 4, !tbaa !8
  br label %lean_dec.exit22

30:                                               ; preds = %25
  %.not.i24 = icmp eq i32 %26, 0
  br i1 %.not.i24, label %lean_dec.exit22, label %31

31:                                               ; preds = %30
  tail call void @lean_dec_ref_cold(ptr noundef nonnull %8) #4
  br label %lean_dec.exit22

lean_dec.exit22:                                  ; preds = %31, %30, %28, %lean_dec.exit23
  %32 = ptrtoint ptr %7 to i64
  %33 = and i64 %32, 1
  %.not37 = icmp eq i64 %33, 0
  br i1 %.not37, label %34, label %lean_dec.exit21

34:                                               ; preds = %lean_dec.exit22
  %35 = load i32, ptr %7, align 4, !tbaa !8
  %36 = icmp sgt i32 %35, 1
  br i1 %36, label %37, label %39, !prof !11

37:                                               ; preds = %34
  %38 = add nsw i32 %35, -1
  store i32 %38, ptr %7, align 4, !tbaa !8
  br label %lean_dec.exit21

39:                                               ; preds = %34
  %.not.i26 = icmp eq i32 %35, 0
  br i1 %.not.i26, label %lean_dec.exit21, label %40

40:                                               ; preds = %39
  tail call void @lean_dec_ref_cold(ptr noundef nonnull %7) #4
  br label %lean_dec.exit21

lean_dec.exit21:                                  ; preds = %40, %39, %37, %lean_dec.exit22
  %41 = ptrtoint ptr %6 to i64
  %42 = and i64 %41, 1
  %.not38 = icmp eq i64 %42, 0
  br i1 %.not38, label %43, label %lean_dec.exit20

43:                                               ; preds = %lean_dec.exit21
  %44 = load i32, ptr %6, align 4, !tbaa !8
  %45 = icmp sgt i32 %44, 1
  br i1 %45, label %46, label %48, !prof !11

46:                                               ; preds = %43
  %47 = add nsw i32 %44, -1
  store i32 %47, ptr %6, align 4, !tbaa !8
  br label %lean_dec.exit20

48:                                               ; preds = %43
  %.not.i28 = icmp eq i32 %44, 0
  br i1 %.not.i28, label %lean_dec.exit20, label %49

49:                                               ; preds = %48
  tail call void @lean_dec_ref_cold(ptr noundef nonnull %6) #4
  br label %lean_dec.exit20

lean_dec.exit20:                                  ; preds = %49, %48, %46, %lean_dec.exit21
  %50 = ptrtoint ptr %5 to i64
  %51 = and i64 %50, 1
  %.not39 = icmp eq i64 %51, 0
  br i1 %.not39, label %52, label %lean_dec.exit19

52:                                               ; preds = %lean_dec.exit20
  %53 = load i32, ptr %5, align 4, !tbaa !8
  %54 = icmp sgt i32 %53, 1
  br i1 %54, label %55, label %57, !prof !11

55:                                               ; preds = %52
  %56 = add nsw i32 %53, -1
  store i32 %56, ptr %5, align 4, !tbaa !8
  br label %lean_dec.exit19

57:                                               ; preds = %52
  %.not.i30 = icmp eq i32 %53, 0
  br i1 %.not.i30, label %lean_dec.exit19, label %58

58:                                               ; preds = %57
  tail call void @lean_dec_ref_cold(ptr noundef nonnull %5) #4
  br label %lean_dec.exit19

lean_dec.exit19:                                  ; preds = %58, %57, %55, %lean_dec.exit20
  %59 = ptrtoint ptr %3 to i64
  %60 = and i64 %59, 1
  %.not40 = icmp eq i64 %60, 0
  br i1 %.not40, label %61, label %lean_dec.exit18

61:                                               ; preds = %lean_dec.exit19
  %62 = load i32, ptr %3, align 4, !tbaa !8
  %63 = icmp sgt i32 %62, 1
  br i1 %63, label %64, label %66, !prof !11

64:                                               ; preds = %61
  %65 = add nsw i32 %62, -1
  store i32 %65, ptr %3, align 4, !tbaa !8
  br label %lean_dec.exit18

66:                                               ; preds = %61
  %.not.i32 = icmp eq i32 %62, 0
  br i1 %.not.i32, label %lean_dec.exit18, label %67

67:                                               ; preds = %66
  tail call void @lean_dec_ref_cold(ptr noundef nonnull %3) #4
  br label %lean_dec.exit18

lean_dec.exit18:                                  ; preds = %67, %66, %64, %lean_dec.exit19
  %68 = ptrtoint ptr %0 to i64
  %69 = and i64 %68, 1
  %.not41 = icmp eq i64 %69, 0
  br i1 %.not41, label %70, label %lean_dec.exit

70:                                               ; preds = %lean_dec.exit18
  %71 = load i32, ptr %0, align 4, !tbaa !8
  %72 = icmp sgt i32 %71, 1
  br i1 %72, label %73, label %75, !prof !11

73:                                               ; preds = %70
  %74 = add nsw i32 %71, -1
  store i32 %74, ptr %0, align 4, !tbaa !8
  br label %lean_dec.exit

75:                                               ; preds = %70
  %.not.i34 = icmp eq i32 %71, 0
  br i1 %.not.i34, label %lean_dec.exit, label %76

76:                                               ; preds = %75
  tail call void @lean_dec_ref_cold(ptr noundef nonnull %0) #4
  br label %lean_dec.exit

lean_dec.exit:                                    ; preds = %76, %75, %73, %lean_dec.exit18
  ret ptr %22
}